target datalayout = "e-m:e-p270:32:32-p271:32:32-p272:64:64-i64:64-i128:128-f80:128-n8:16:32:64-S128"
target triple = "x86_64-pc-linux-gnu"

; Function Attrs: mustprogress nounwind uwtable
define noundef float @_Z26common_embd_similarity_cosPKfS0_i(ptr noundef %0, ptr noundef %1, i32 noundef %2) #6 {
  %4 = alloca float, align 4
  %5 = alloca ptr, align 8
  %6 = alloca ptr, align 8
  %7 = alloca i32, align 4
  %8 = alloca double, align 8
  %9 = alloca double, align 8
  %10 = alloca double, align 8
  %11 = alloca i32, align 4
  %12 = alloca i32, align 4
  store ptr %0, ptr %5, align 8, !tbaa !222
  store ptr %1, ptr %6, align 8, !tbaa !222
  store i32 %2, ptr %7, align 4, !tbaa !3
  call void @llvm.lifetime.start.p0(i64 8, ptr %8) #3
  store double 0.000000e+00, ptr %8, align 8, !tbaa !427
  call void @llvm.lifetime.start.p0(i64 8, ptr %9) #3
  store double 0.000000e+00, ptr %9, align 8, !tbaa !427
  call void @llvm.lifetime.start.p0(i64 8, ptr %10) #3
  store double 0.000000e+00, ptr %10, align 8, !tbaa !427
  call void @llvm.lifetime.start.p0(i64 4, ptr %11) #3
  store i32 0, ptr %11, align 4, !tbaa !3
  br label %13

13:                                               ; preds = %61, %3
  %14 = load i32, ptr %11, align 4, !tbaa !3
  %15 = load i32, ptr %7, align 4, !tbaa !3
  %16 = icmp slt i32 %14, %15
  br i1 %16, label %18, label %17

17:                                               ; preds = %13
  call void @llvm.lifetime.end.p0(i64 4, ptr %11) #3
  br label %64

18:                                               ; preds = %13
  %19 = load ptr, ptr %5, align 8, !tbaa !222
  %20 = load i32, ptr %11, align 4, !tbaa !3
  %21 = sext i32 %20 to i64
  %22 = getelementptr inbounds float, ptr %19, i64 %21
  %23 = load float, ptr %22, align 4, !tbaa !228
  %24 = load ptr, ptr %6, align 8, !tbaa !222
  %25 = load i32, ptr %11, align 4, !tbaa !3
  %26 = sext i32 %25 to i64
  %27 = getelementptr inbounds float, ptr %24, i64 %26
  %28 = load float, ptr %27, align 4, !tbaa !228
  %29 = fmul float %23, %28
  %30 = fpext float %29 to double
  %31 = load double, ptr %8, align 8, !tbaa !427
  %32 = fadd double %31, %30
  store double %32, ptr %8, align 8, !tbaa !427
  %33 = load ptr, ptr %5, align 8, !tbaa !222
  %34 = load i32, ptr %11, align 4, !tbaa !3
  %35 = sext i32 %34 to i64
  %36 = getelementptr inbounds float, ptr %33, i64 %35
  %37 = load float, ptr %36, align 4, !tbaa !228
  %38 = load ptr, ptr %5, align 8, !tbaa !222
  %39 = load i32, ptr %11, align 4, !tbaa !3
  %40 = sext i32 %39 to i64
  %41 = getelementptr inbounds float, ptr %38, i64 %40
  %42 = load float, ptr %41, align 4, !tbaa !228
  %43 = fmul float %37, %42
  %44 = fpext float %43 to double
  %45 = load double, ptr %9, align 8, !tbaa !427
  %46 = fadd double %45, %44
  store double %46, ptr %9, align 8, !tbaa !427
  %47 = load ptr, ptr %6, align 8, !tbaa !222
  %48 = load i32, ptr %11, align 4, !tbaa !3
  %49 = sext i32 %48 to i64
  %50 = getelementptr inbounds float, ptr %47, i64 %49
  %51 = load float, ptr %50, align 4, !tbaa !228
  %52 = load ptr, ptr %6, align 8, !tbaa !222
  %53 = load i32, ptr %11, align 4, !tbaa !3
  %54 = sext i32 %53 to i64
  %55 = getelementptr inbounds float, ptr %52, i64 %54
  %56 = load float, ptr %55, align 4, !tbaa !228
  %57 = fmul float %51, %56
  %58 = fpext float %57 to double
  %59 = load double, ptr %10, align 8, !tbaa !427
  %60 = fadd double %59, %58
  store double %60, ptr %10, align 8, !tbaa !427
  br label %61

61:                                               ; preds = %18
  %62 = load i32, ptr %11, align 4, !tbaa !3
  %63 = add nsw i32 %62, 1
  store i32 %63, ptr %11, align 4, !tbaa !3
  br label %13, !llvm.loop !433

64:                                               ; preds = %17
  %65 = load double, ptr %9, align 8, !tbaa !427
  %66 = fcmp oeq double %65, 0.000000e+00
  br i1 %66, label %70, label %67

67:                                               ; preds = %64
  %68 = load double, ptr %10, align 8, !tbaa !427
  %69 = fcmp oeq double %68, 0.000000e+00
  br i1 %69, label %70, label %78

70:                                               ; preds = %67, %64
  %71 = load double, ptr %9, align 8, !tbaa !427
  %72 = fcmp oeq double %71, 0.000000e+00
  br i1 %72, label %73, label %77

73:                                               ; preds = %70
  %74 = load double, ptr %10, align 8, !tbaa !427
  %75 = fcmp oeq double %74, 0.000000e+00
  br i1 %75, label %76, label %77

76:                                               ; preds = %73
  store float 1.000000e+00, ptr %4, align 4
  store i32 1, ptr %12, align 4
  br label %87

77:                                               ; preds = %73, %70
  store float 0.000000e+00, ptr %4, align 4
  store i32 1, ptr %12, align 4
  br label %87

78:                                               ; preds = %67
  %79 = load double, ptr %8, align 8, !tbaa !427
  %80 = load double, ptr %9, align 8, !tbaa !427
  %81 = call double @sqrt(double noundef %80) #3, !tbaa !3
  %82 = load double, ptr %10, align 8, !tbaa !427
  %83 = call double @sqrt(double noundef %82) #3, !tbaa !3
  %84 = fmul double %81, %83
  %85 = fdiv double %79, %84
  %86 = fptrunc double %85 to float
  store float %86, ptr %4, align 4
  store i32 1, ptr %12, align 4
  br label %87

87:                                               ; preds = %78, %77, %76
  call void @llvm.lifetime.end.p0(i64 8, ptr %10) #3
  call void @llvm.lifetime.end.p0(i64 8, ptr %9) #3
  call void @llvm.lifetime.end.p0(i64 8, ptr %8) #3
  %88 = load float, ptr %4, align 4
  ret float %88
}