; Function Attrs: mustprogress nofree nounwind memory(write, argmem: readwrite) uwtable
define noundef float @_Z26common_embd_similarity_cosPKfS0_i(ptr noundef readonly captures(none) %0, ptr noundef readonly captures(none) %1, i32 noundef %2) local_unnamed_addr #24 {
  %4 = icmp sgt i32 %2, 0
  br i1 %4, label %.lr.ph.preheader, label %._crit_edge.thread

.lr.ph.preheader:                                 ; preds = %3
  %wide.trip.count = zext nneg i32 %2 to i64
  br label %.lr.ph

._crit_edge:                                      ; preds = %.lr.ph
  %5 = fcmp oeq double %16, 0.000000e+00
  %6 = fcmp oeq double %19, 0.000000e+00
  %or.cond = select i1 %5, i1 true, i1 %6
  br i1 %or.cond, label %._crit_edge.thread, label %22

.lr.ph:                                           ; preds = %.lr.ph.preheader, %.lr.ph
  %indvars.iv = phi i64 [ 0, %.lr.ph.preheader ], [ %indvars.iv.next, %.lr.ph ]
  %.02834 = phi double [ 0.000000e+00, %.lr.ph.preheader ], [ %19, %.lr.ph ]
  %.02933 = phi double [ 0.000000e+00, %.lr.ph.preheader ], [ %16, %.lr.ph ]
  %.03032 = phi double [ 0.000000e+00, %.lr.ph.preheader ], [ %13, %.lr.ph ]
  %7 = getelementptr inbounds nuw float, ptr %0, i64 %indvars.iv
  %8 = load float, ptr %7, align 4, !tbaa !446
  %9 = getelementptr inbounds nuw float, ptr %1, i64 %indvars.iv
  %10 = load float, ptr %9, align 4, !tbaa !446
  %11 = fmul float %8, %10
  %12 = fpext float %11 to double
  %13 = fadd double %.03032, %12
  %14 = fmul float %8, %8
  %15 = fpext float %14 to double
  %16 = fadd double %.02933, %15
  %17 = fmul float %10, %10
  %18 = fpext float %17 to double
  %19 = fadd double %.02834, %18
  %indvars.iv.next = add nuw nsw i64 %indvars.iv, 1
  %exitcond.not = icmp eq i64 %indvars.iv.next, %wide.trip.count
  br i1 %exitcond.not, label %._crit_edge, label %.lr.ph, !llvm.loop !503

._crit_edge.thread:                               ; preds = %3, %._crit_edge
  %20 = phi i1 [ %6, %._crit_edge ], [ true, %3 ]
  %21 = phi i1 [ %5, %._crit_edge ], [ true, %3 ]
  %or.cond3 = select i1 %21, i1 %20, i1 false
  %. = select i1 %or.cond3, float 1.000000e+00, float 0.000000e+00
  br label %28

22:                                               ; preds = %._crit_edge
  %23 = tail call double @sqrt(double noundef %16) #37, !tbaa !72
  %24 = tail call double @sqrt(double noundef %19) #37, !tbaa !72
  %25 = fmul double %23, %24
  %26 = fdiv double %13, %25
  %27 = fptrunc double %26 to float
  br label %28

28:                                               ; preds = %._crit_edge.thread, %22
  %.031 = phi float [ %27, %22 ], [ %., %._crit_edge.thread ]
  ret float %.031
}